target datalayout = "e-m:e-p270:32:32-p271:32:32-p272:64:64-i64:64-i128:128-f80:128-n8:16:32:64-S128"
target triple = "x86_64-unknown-linux-gnu"

%"class.FLAC::Metadata::VorbisComment::Entry" = type <{ ptr, i8, [7 x i8], %struct.FLAC__StreamMetadata_VorbisComment_Entry, ptr, i32, [4 x i8], ptr, i32, [4 x i8] }>
%struct.FLAC__StreamMetadata_VorbisComment_Entry = type { i32, ptr }

@.str = private unnamed_addr constant [2 x i8] c"=\00", align 1

; Function Attrs: mustprogress nounwind sspstrong uwtable
define internal noundef ptr @_ZL12safe_malloc_m(i64 noundef %size) #5 {
entry:
  %size.addr = alloca i64, align 8
  store i64 %size, ptr %size.addr, align 8
  %0 = load i64, ptr %size.addr, align 8
  %tobool = icmp ne i64 %0, 0
  br i1 %tobool, label %if.end, label %if.then

if.then:                                          ; preds = %entry
  %1 = load i64, ptr %size.addr, align 8
  %inc = add i64 %1, 1
  store i64 %inc, ptr %size.addr, align 8
  br label %if.end

if.end:                                           ; preds = %if.then, %entry
  %2 = load i64, ptr %size.addr, align 8
  %call = call noalias ptr @malloc(i64 noundef %2) #16
  ret ptr %call
}

; Function Attrs: mustprogress sspstrong uwtable
define internal noundef ptr @_ZL20safe_malloc_add_4op_mmmm(i64 noundef %size1, i64 noundef %size2, i64 noundef %size3, i64 noundef %size4) #0 {
entry:
  %retval = alloca ptr, align 8
  %size1.addr = alloca i64, align 8
  %size2.addr = alloca i64, align 8
  %size3.addr = alloca i64, align 8
  %size4.addr = alloca i64, align 8
  store i64 %size1, ptr %size1.addr, align 8
  store i64 %size2, ptr %size2.addr, align 8
  store i64 %size3, ptr %size3.addr, align 8
  store i64 %size4, ptr %size4.addr, align 8
  %0 = load i64, ptr %size1.addr, align 8
  %1 = load i64, ptr %size2.addr, align 8
  %add = add i64 %1, %0
  store i64 %add, ptr %size2.addr, align 8
  %2 = load i64, ptr %size2.addr, align 8
  %3 = load i64, ptr %size1.addr, align 8
  %cmp = icmp ult i64 %2, %3
  br i1 %cmp, label %if.then, label %if.end

if.then:                                          ; preds = %entry
  store ptr null, ptr %retval, align 8
  br label %return

if.end:                                           ; preds = %entry
  %4 = load i64, ptr %size2.addr, align 8
  %5 = load i64, ptr %size3.addr, align 8
  %add1 = add i64 %5, %4
  store i64 %add1, ptr %size3.addr, align 8
  %6 = load i64, ptr %size3.addr, align 8
  %7 = load i64, ptr %size2.addr, align 8
  %cmp2 = icmp ult i64 %6, %7
  br i1 %cmp2, label %if.then3, label %if.end4

if.then3:                                         ; preds = %if.end
  store ptr null, ptr %retval, align 8
  br label %return

if.end4:                                          ; preds = %if.end
  %8 = load i64, ptr %size3.addr, align 8
  %9 = load i64, ptr %size4.addr, align 8
  %add5 = add i64 %9, %8
  store i64 %add5, ptr %size4.addr, align 8
  %10 = load i64, ptr %size4.addr, align 8
  %11 = load i64, ptr %size3.addr, align 8
  %cmp6 = icmp ult i64 %10, %11
  br i1 %cmp6, label %if.then7, label %if.end8

if.then7:                                         ; preds = %if.end4
  store ptr null, ptr %retval, align 8
  br label %return

if.end8:                                          ; preds = %if.end4
  %12 = load i64, ptr %size4.addr, align 8
  %call = call noundef ptr @_ZL12safe_malloc_m(i64 noundef %12)
  store ptr %call, ptr %retval, align 8
  br label %return

return:                                           ; preds = %if.end8, %if.then7, %if.then3, %if.then
  %13 = load ptr, ptr %retval, align 8
  ret ptr %13
}

; Function Attrs: mustprogress nounwind sspstrong uwtable
define void @_ZN4FLAC8Metadata13VorbisComment5Entry11clear_entryEv(ptr noundef nonnull align 8 dereferenceable(60) %this) #5 align 2 {
entry:
  %this.addr = alloca ptr, align 8
  store ptr %this, ptr %this.addr, align 8
  %this1 = load ptr, ptr %this.addr, align 8
  %entry_ = getelementptr inbounds %"class.FLAC::Metadata::VorbisComment::Entry", ptr %this1, i32 0, i32 3
  %entry2 = getelementptr inbounds %struct.FLAC__StreamMetadata_VorbisComment_Entry, ptr %entry_, i32 0, i32 1
  %0 = load ptr, ptr %entry2, align 8
  %cmp = icmp ne ptr null, %0
  br i1 %cmp, label %if.then, label %if.end

if.then:                                          ; preds = %entry
  %entry_3 = getelementptr inbounds %"class.FLAC::Metadata::VorbisComment::Entry", ptr %this1, i32 0, i32 3
  %entry4 = getelementptr inbounds %struct.FLAC__StreamMetadata_VorbisComment_Entry, ptr %entry_3, i32 0, i32 1
  %1 = load ptr, ptr %entry4, align 8
  call void @free(ptr noundef %1) #14
  %entry_5 = getelementptr inbounds %"class.FLAC::Metadata::VorbisComment::Entry", ptr %this1, i32 0, i32 3
  %entry6 = getelementptr inbounds %struct.FLAC__StreamMetadata_VorbisComment_Entry, ptr %entry_5, i32 0, i32 1
  store ptr null, ptr %entry6, align 8
  %entry_7 = getelementptr inbounds %"class.FLAC::Metadata::VorbisComment::Entry", ptr %this1, i32 0, i32 3
  %length = getelementptr inbounds %struct.FLAC__StreamMetadata_VorbisComment_Entry, ptr %entry_7, i32 0, i32 0
  store i32 0, ptr %length, align 8
  br label %if.end

if.end:                                           ; preds = %if.then, %entry
  ret void
}

; Function Attrs: mustprogress sspstrong uwtable
define void @_ZN4FLAC8Metadata13VorbisComment5Entry13compose_fieldEv(ptr noundef nonnull align 8 dereferenceable(60) %this) #0 align 2 {
entry:
  %this.addr = alloca ptr, align 8
  store ptr %this, ptr %this.addr, align 8
  %this1 = load ptr, ptr %this.addr, align 8
  call void @_ZN4FLAC8Metadata13VorbisComment5Entry11clear_entryEv(ptr noundef nonnull align 8 dereferenceable(60) %this1)
  %field_name_length_ = getelementptr inbounds %"class.FLAC::Metadata::VorbisComment::Entry", ptr %this1, i32 0, i32 5
  %0 = load i32, ptr %field_name_length_, align 8
  %conv = zext i32 %0 to i64
  %field_value_length_ = getelementptr inbounds %"class.FLAC::Metadata::VorbisComment::Entry", ptr %this1, i32 0, i32 8
  %1 = load i32, ptr %field_value_length_, align 8
  %conv2 = zext i32 %1 to i64
  %call = call noundef ptr @_ZL20safe_malloc_add_4op_mmmm(i64 noundef %conv, i64 noundef 1, i64 noundef %conv2, i64 noundef 1)
  %entry_ = getelementptr inbounds %"class.FLAC::Metadata::VorbisComment::Entry", ptr %this1, i32 0, i32 3
  %entry3 = getelementptr inbounds %struct.FLAC__StreamMetadata_VorbisComment_Entry, ptr %entry_, i32 0, i32 1
  store ptr %call, ptr %entry3, align 8
  %cmp = icmp eq ptr null, %call
  br i1 %cmp, label %if.then, label %if.else

if.then:                                          ; preds = %entry
  %is_valid_ = getelementptr inbounds %"class.FLAC::Metadata::VorbisComment::Entry", ptr %this1, i32 0, i32 1
  store i8 0, ptr %is_valid_, align 8
  br label %if.end37

if.else:                                          ; preds = %entry
  %entry_4 = getelementptr inbounds %"class.FLAC::Metadata::VorbisComment::Entry", ptr %this1, i32 0, i32 3
  %entry5 = getelementptr inbounds %struct.FLAC__StreamMetadata_VorbisComment_Entry, ptr %entry_4, i32 0, i32 1
  %2 = load ptr, ptr %entry5, align 8
  %field_name_ = getelementptr inbounds %"class.FLAC::Metadata::VorbisComment::Entry", ptr %this1, i32 0, i32 4
  %3 = load ptr, ptr %field_name_, align 8
  %field_name_length_6 = getelementptr inbounds %"class.FLAC::Metadata::VorbisComment::Entry", ptr %this1, i32 0, i32 5
  %4 = load i32, ptr %field_name_length_6, align 8
  %conv7 = zext i32 %4 to i64
  call void @llvm.memcpy.p0.p0.i64(ptr align 1 %2, ptr align 1 %3, i64 %conv7, i1 false)
  %field_name_length_8 = getelementptr inbounds %"class.FLAC::Metadata::VorbisComment::Entry", ptr %this1, i32 0, i32 5
  %5 = load i32, ptr %field_name_length_8, align 8
  %entry_9 = getelementptr inbounds %"class.FLAC::Metadata::VorbisComment::Entry", ptr %this1, i32 0, i32 3
  %length = getelementptr inbounds %struct.FLAC__StreamMetadata_VorbisComment_Entry, ptr %entry_9, i32 0, i32 0
  %6 = load i32, ptr %length, align 8
  %add = add i32 %6, %5
  store i32 %add, ptr %length, align 8
  %entry_10 = getelementptr inbounds %"class.FLAC::Metadata::VorbisComment::Entry", ptr %this1, i32 0, i32 3
  %entry11 = getelementptr inbounds %struct.FLAC__StreamMetadata_VorbisComment_Entry, ptr %entry_10, i32 0, i32 1
  %7 = load ptr, ptr %entry11, align 8
  %entry_12 = getelementptr inbounds %"class.FLAC::Metadata::VorbisComment::Entry", ptr %this1, i32 0, i32 3
  %length13 = getelementptr inbounds %struct.FLAC__StreamMetadata_VorbisComment_Entry, ptr %entry_12, i32 0, i32 0
  %8 = load i32, ptr %length13, align 8
  %idx.ext = zext i32 %8 to i64
  %add.ptr = getelementptr inbounds i8, ptr %7, i64 %idx.ext
  call void @llvm.memcpy.p0.p0.i64(ptr align 1 %add.ptr, ptr align 1 @.str, i64 1, i1 false)
  %entry_14 = getelementptr inbounds %"class.FLAC::Metadata::VorbisComment::Entry", ptr %this1, i32 0, i32 3
  %length15 = getelementptr inbounds %struct.FLAC__StreamMetadata_VorbisComment_Entry, ptr %entry_14, i32 0, i32 0
  %9 = load i32, ptr %length15, align 8
  %add16 = add i32 %9, 1
  store i32 %add16, ptr %length15, align 8
  %field_value_length_17 = getelementptr inbounds %"class.FLAC::Metadata::VorbisComment::Entry", ptr %this1, i32 0, i32 8
  %10 = load i32, ptr %field_value_length_17, align 8
  %cmp18 = icmp ugt i32 %10, 0
  br i1 %cmp18, label %if.then19, label %if.end

if.then19:                                        ; preds = %if.else
  %entry_20 = getelementptr inbounds %"class.FLAC::Metadata::VorbisComment::Entry", ptr %this1, i32 0, i32 3
  %entry21 = getelementptr inbounds %struct.FLAC__StreamMetadata_VorbisComment_Entry, ptr %entry_20, i32 0, i32 1
  %11 = load ptr, ptr %entry21, align 8
  %entry_22 = getelementptr inbounds %"class.FLAC::Metadata::VorbisComment::Entry", ptr %this1, i32 0, i32 3
  %length23 = getelementptr inbounds %struct.FLAC__StreamMetadata_VorbisComment_Entry, ptr %entry_22, i32 0, i32 0
  %12 = load i32, ptr %length23, align 8
  %idx.ext24 = zext i32 %12 to i64
  %add.ptr25 = getelementptr inbounds i8, ptr %11, i64 %idx.ext24
  %field_value_ = getelementptr inbounds %"class.FLAC::Metadata::VorbisComment::Entry", ptr %this1, i32 0, i32 7
  %13 = load ptr, ptr %field_value_, align 8
  %field_value_length_26 = getelementptr inbounds %"class.FLAC::Metadata::VorbisComment::Entry", ptr %this1, i32 0, i32 8
  %14 = load i32, ptr %field_value_length_26, align 8
  %conv27 = zext i32 %14 to i64
  call void @llvm.memcpy.p0.p0.i64(ptr align 1 %add.ptr25, ptr align 1 %13, i64 %conv27, i1 false)
  br label %if.end

if.end:                                           ; preds = %if.then19, %if.else
  %field_value_length_28 = getelementptr inbounds %"class.FLAC::Metadata::VorbisComment::Entry", ptr %this1, i32 0, i32 8
  %15 = load i32, ptr %field_value_length_28, align 8
  %entry_29 = getelementptr inbounds %"class.FLAC::Metadata::VorbisComment::Entry", ptr %this1, i32 0, i32 3
  %length30 = getelementptr inbounds %struct.FLAC__StreamMetadata_VorbisComment_Entry, ptr %entry_29, i32 0, i32 0
  %16 = load i32, ptr %length30, align 8
  %add31 = add i32 %16, %15
  store i32 %add31, ptr %length30, align 8
  %entry_32 = getelementptr inbounds %"class.FLAC::Metadata::VorbisComment::Entry", ptr %this1, i32 0, i32 3
  %entry33 = getelementptr inbounds %struct.FLAC__StreamMetadata_VorbisComment_Entry, ptr %entry_32, i32 0, i32 1
  %17 = load ptr, ptr %entry33, align 8
  %entry_34 = getelementptr inbounds %"class.FLAC::Metadata::VorbisComment::Entry", ptr %this1, i32 0, i32 3
  %length35 = getelementptr inbounds %struct.FLAC__StreamMetadata_VorbisComment_Entry, ptr %entry_34, i32 0, i32 0
  %18 = load i32, ptr %length35, align 8
  %idxprom = zext i32 %18 to i64
  %arrayidx = getelementptr inbounds i8, ptr %17, i64 %idxprom
  store i8 0, ptr %arrayidx, align 1
  %is_valid_36 = getelementptr inbounds %"class.FLAC::Metadata::VorbisComment::Entry", ptr %this1, i32 0, i32 1
  store i8 1, ptr %is_valid_36, align 8
  br label %if.end37

if.end37:                                         ; preds = %if.end, %if.then
  ret void
}

; Function Attrs: mustprogress sspstrong uwtable
define void @_ZN4FLAC8Metadata13VorbisComment5Entry9constructEPKcS4_j(ptr noundef nonnull align 8 dereferenceable(60) %this, ptr noundef %field_name, ptr noundef %field_value, i32 noundef %field_value_length) #0 align 2 {
entry:
  %this.addr = alloca ptr, align 8
  %field_name.addr = alloca ptr, align 8
  %field_value.addr = alloca ptr, align 8
  %field_value_length.addr = alloca i32, align 4
  store ptr %this, ptr %this.addr, align 8
  store ptr %field_name, ptr %field_name.addr, align 8
  store ptr %field_value, ptr %field_value.addr, align 8
  store i32 %field_value_length, ptr %field_value_length.addr, align 4
  %this1 = load ptr, ptr %this.addr, align 8
  %0 = load ptr, ptr %field_name.addr, align 8
  %call = call noundef zeroext i1 @_ZN4FLAC8Metadata13VorbisComment5Entry14set_field_nameEPKc(ptr noundef nonnull align 8 dereferenceable(60) %this1, ptr noundef %0)
  br i1 %call, label %land.lhs.true, label %if.end

land.lhs.true:                                    ; preds = %entry
  %1 = load ptr, ptr %field_value.addr, align 8
  %2 = load i32, ptr %field_value_length.addr, align 4
  %call2 = call noundef zeroext i1 @_ZN4FLAC8Metadata13VorbisComment5Entry15set_field_valueEPKcj(ptr noundef nonnull align 8 dereferenceable(60) %this1, ptr noundef %1, i32 noundef %2)
  br i1 %call2, label %if.then, label %if.end

if.then:                                          ; preds = %land.lhs.true
  call void @_ZN4FLAC8Metadata13VorbisComment5Entry13compose_fieldEv(ptr noundef nonnull align 8 dereferenceable(60) %this1)
  br label %if.end

if.end:                                           ; preds = %if.then, %land.lhs.true, %entry
  ret void
}

; Function Attrs: mustprogress sspstrong uwtable
define void @_ZN4FLAC8Metadata13VorbisComment5Entry9constructEPKcS4_(ptr noundef nonnull align 8 dereferenceable(60) %this, ptr noundef %field_name, ptr noundef %field_value) #0 align 2 {
entry:
  %this.addr = alloca ptr, align 8
  %field_name.addr = alloca ptr, align 8
  %field_value.addr = alloca ptr, align 8
  store ptr %this, ptr %this.addr, align 8
  store ptr %field_name, ptr %field_name.addr, align 8
  store ptr %field_value, ptr %field_value.addr, align 8
  %this1 = load ptr, ptr %this.addr, align 8
  %0 = load ptr, ptr %field_name.addr, align 8
  %1 = load ptr, ptr %field_value.addr, align 8
  %2 = load ptr, ptr %field_value.addr, align 8
  %call = call i64 @strlen(ptr noundef %2) #3
  %conv = trunc i64 %call to i32
  call void @_ZN4FLAC8Metadata13VorbisComment5Entry9constructEPKcS4_j(ptr noundef nonnull align 8 dereferenceable(60) %this1, ptr noundef %0, ptr noundef %1, i32 noundef %conv)
  ret void
}