; Function Attrs: mustprogress sspstrong uwtable
define void @_ZN4FLAC8Metadata13VorbisComment5Entry9constructEPKcS4_(ptr nocapture noundef nonnull align 8 dereferenceable(60) %this, ptr noundef %field_name, ptr noundef %field_value) local_unnamed_addr #0 align 2 {
entry:
  %call = tail call i64 @strlen(ptr noundef nonnull dereferenceable(1) %field_value) #24
  %call.i = tail call noundef zeroext i1 @_ZN4FLAC8Metadata13VorbisComment5Entry14set_field_nameEPKc(ptr noundef nonnull align 8 dereferenceable(60) %this, ptr noundef %field_name)
  br i1 %call.i, label %land.lhs.true.i, label %_ZN4FLAC8Metadata13VorbisComment5Entry9constructEPKcS4_j.exit

land.lhs.true.i:                                  ; preds = %entry
  %conv = trunc i64 %call to i32
  %call2.i = tail call noundef zeroext i1 @_ZN4FLAC8Metadata13VorbisComment5Entry15set_field_valueEPKcj(ptr noundef nonnull align 8 dereferenceable(60) %this, ptr noundef %field_value, i32 noundef %conv)
  br i1 %call2.i, label %if.then.i, label %_ZN4FLAC8Metadata13VorbisComment5Entry9constructEPKcS4_j.exit

if.then.i:                                        ; preds = %land.lhs.true.i
  %entry2.i.i.i = getelementptr inbounds i8, ptr %this, i64 24
  %0 = load ptr, ptr %entry2.i.i.i, align 8
  %cmp.not.i.i.i = icmp eq ptr %0, null
  br i1 %cmp.not.i.i.i, label %_ZN4FLAC8Metadata13VorbisComment5Entry11clear_entryEv.exit.i.i, label %if.then.i.i.i

if.then.i.i.i:                                    ; preds = %if.then.i
  %entry_.i.i.i = getelementptr inbounds i8, ptr %this, i64 16
  tail call void @free(ptr noundef nonnull %0) #20
  store i32 0, ptr %entry_.i.i.i, align 8
  br label %_ZN4FLAC8Metadata13VorbisComment5Entry11clear_entryEv.exit.i.i

_ZN4FLAC8Metadata13VorbisComment5Entry11clear_entryEv.exit.i.i: ; preds = %if.then.i.i.i, %if.then.i
  %field_name_length_.i.i = getelementptr inbounds i8, ptr %this, i64 40
  %1 = load i32, ptr %field_name_length_.i.i, align 8
  %conv.i.i = zext i32 %1 to i64
  %field_value_length_.i.i = getelementptr inbounds i8, ptr %this, i64 56
  %2 = load i32, ptr %field_value_length_.i.i, align 8
  %conv2.i.i = zext i32 %2 to i64
  %add1.i.i.i = add nuw nsw i64 %conv.i.i, 2
  %add5.i.i.i = add nuw nsw i64 %add1.i.i.i, %conv2.i.i
  %call.i.i.i.i = tail call noalias noundef ptr @malloc(i64 noundef %add5.i.i.i) #23
  %entry_.i.i = getelementptr inbounds i8, ptr %this, i64 16
  store ptr %call.i.i.i.i, ptr %entry2.i.i.i, align 8
  %cmp.i.i = icmp eq ptr %call.i.i.i.i, null
  br i1 %cmp.i.i, label %_ZN4FLAC8Metadata13VorbisComment5Entry13compose_fieldEv.exit.i, label %if.else.i.i

if.else.i.i:                                      ; preds = %_ZN4FLAC8Metadata13VorbisComment5Entry11clear_entryEv.exit.i.i
  %field_name_.i.i = getelementptr inbounds i8, ptr %this, i64 32
  %3 = load ptr, ptr %field_name_.i.i, align 8
  tail call void @llvm.memcpy.p0.p0.i64(ptr nonnull align 1 %call.i.i.i.i, ptr align 1 %3, i64 %conv.i.i, i1 false)
  %4 = load i32, ptr %entry_.i.i, align 8
  %add.i.i = add i32 %4, %1
  %idx.ext.i.i = zext i32 %add.i.i to i64
  %add.ptr.i.i = getelementptr inbounds i8, ptr %call.i.i.i.i, i64 %idx.ext.i.i
  store i8 61, ptr %add.ptr.i.i, align 1
  %add16.i.i = add i32 %add.i.i, 1
  store i32 %add16.i.i, ptr %entry_.i.i, align 8
  %cmp18.not.i.i = icmp eq i32 %2, 0
  br i1 %cmp18.not.i.i, label %if.end.i.i, label %if.then19.i.i

if.then19.i.i:                                    ; preds = %if.else.i.i
  %idx.ext24.i.i = zext i32 %add16.i.i to i64
  %add.ptr25.i.i = getelementptr inbounds i8, ptr %call.i.i.i.i, i64 %idx.ext24.i.i
  %field_value_.i.i = getelementptr inbounds i8, ptr %this, i64 48
  %5 = load ptr, ptr %field_value_.i.i, align 8
  tail call void @llvm.memcpy.p0.p0.i64(ptr nonnull align 1 %add.ptr25.i.i, ptr align 1 %5, i64 %conv2.i.i, i1 false)
  br label %if.end.i.i

if.end.i.i:                                       ; preds = %if.then19.i.i, %if.else.i.i
  %add31.i.i = add i32 %add16.i.i, %2
  store i32 %add31.i.i, ptr %entry_.i.i, align 8
  %idxprom.i.i = zext i32 %add31.i.i to i64
  %arrayidx.i.i = getelementptr inbounds i8, ptr %call.i.i.i.i, i64 %idxprom.i.i
  store i8 0, ptr %arrayidx.i.i, align 1
  br label %_ZN4FLAC8Metadata13VorbisComment5Entry13compose_fieldEv.exit.i

_ZN4FLAC8Metadata13VorbisComment5Entry13compose_fieldEv.exit.i: ; preds = %if.end.i.i, %_ZN4FLAC8Metadata13VorbisComment5Entry11clear_entryEv.exit.i.i
  %.sink.i.i = phi i8 [ 1, %if.end.i.i ], [ 0, %_ZN4FLAC8Metadata13VorbisComment5Entry11clear_entryEv.exit.i.i ]
  %is_valid_36.i.i = getelementptr inbounds i8, ptr %this, i64 8
  store i8 %.sink.i.i, ptr %is_valid_36.i.i, align 8
  br label %_ZN4FLAC8Metadata13VorbisComment5Entry9constructEPKcS4_j.exit

_ZN4FLAC8Metadata13VorbisComment5Entry9constructEPKcS4_j.exit: ; preds = %entry, %land.lhs.true.i, %_ZN4FLAC8Metadata13VorbisComment5Entry13compose_fieldEv.exit.i
  ret void
}